; Function Attrs: mustprogress nounwind uwtable
define hidden noundef ptr @_ZN11Opaque1Node8IdentityEP8PhaseGVN(ptr noundef nonnull align 8 dereferenceable(52) %0, ptr nocapture noundef readonly %1) unnamed_addr #1 align 2 {
  %3 = getelementptr inbounds i8, ptr %1, i64 16
  %4 = load ptr, ptr %3, align 8
  %5 = getelementptr inbounds i8, ptr %4, i64 112
  %6 = load i8, ptr %5, align 8
  %7 = trunc i8 %6 to i1
  br i1 %7, label %8, label %13

8:                                                ; preds = %2
  %9 = getelementptr inbounds i8, ptr %0, i64 8
  %10 = load ptr, ptr %9, align 8
  %11 = getelementptr inbounds i8, ptr %10, i64 8
  %12 = load ptr, ptr %11, align 8
  br label %14

13:                                               ; preds = %2
  tail call void @_ZN7Compile30record_for_post_loop_opts_igvnEP4Node(ptr noundef nonnull align 8 dereferenceable(2316) %4, ptr noundef nonnull %0) #5
  br label %14

14:                                               ; preds = %13, %8
  %.0 = phi ptr [ %12, %8 ], [ %0, %13 ]
  ret ptr %.0
}